; Function Attrs: mustprogress uwtable
define noundef nonnull align 8 dereferenceable(64) ptr @_ZNK6icu_7522TransliteratorRegistry19getAvailableVariantEiRKNS_13UnicodeStringES3_RS1_(ptr noundef nonnull align 8 dereferenceable(312) %this, i32 noundef %index, ptr noundef nonnull align 8 dereferenceable(64) %source, ptr noundef nonnull align 8 dereferenceable(64) %target, ptr noundef nonnull returned align 8 dereferenceable(64) %result) local_unnamed_addr #1 align 2 {
entry:
  %specDAG = getelementptr inbounds i8, ptr %this, i64 96
  %0 = load ptr, ptr %specDAG, align 8
  %call.i = tail call noundef ptr @uhash_get_75(ptr noundef %0, ptr noundef nonnull %source)
  %cmp = icmp eq ptr %call.i, null
  br i1 %cmp, label %if.then, label %if.end

if.then:                                          ; preds = %entry
  %fUnion.i.i = getelementptr inbounds i8, ptr %result, i64 8
  %1 = load i16, ptr %fUnion.i.i, align 8
  %conv2.i5.i = and i16 %1, 1
  %tobool.i.not = icmp eq i16 %conv2.i5.i, 0
  br i1 %tobool.i.not, label %if.else.i, label %if.then.i

if.then.i:                                        ; preds = %if.then
  tail call void @_ZN6icu_7513UnicodeString7unBogusEv(ptr noundef nonnull align 8 dereferenceable(64) %result)
  br label %return

if.else.i:                                        ; preds = %if.then
  %cmp.i.i.i = icmp slt i16 %1, 0
  %2 = ashr i16 %1, 5
  %shr.i.i.i = sext i16 %2 to i32
  %fLength.i.i = getelementptr inbounds i8, ptr %result, i64 12
  %3 = load i32, ptr %fLength.i.i, align 4
  %cond.i.i = select i1 %cmp.i.i.i, i32 %3, i32 %shr.i.i.i
  %cmp3.i.not = icmp eq i32 %cond.i.i, 0
  br i1 %cmp3.i.not, label %return, label %if.then4.i

if.then4.i:                                       ; preds = %if.else.i
  %4 = and i16 %1, 30
  store i16 %4, ptr %fUnion.i.i, align 8
  br label %return

if.end:                                           ; preds = %entry
  %5 = load ptr, ptr %call.i, align 8
  %call.i12 = tail call noundef i32 @uhash_geti_75(ptr noundef %5, ptr noundef nonnull %target)
  %cmp4.not27 = icmp eq i32 %call.i12, 0
  br i1 %cmp4.not27, label %while.end, label %while.body

while.body:                                       ; preds = %if.end, %if.end14
  %varListIndex.030 = phi i32 [ %inc15, %if.end14 ], [ 0, %if.end ]
  %varCount.029 = phi i32 [ %varCount.1, %if.end14 ], [ 0, %if.end ]
  %varMask.028 = phi i32 [ %shr, %if.end14 ], [ %call.i12, %if.end ]
  %and = and i32 %varMask.028, 1
  %tobool.not = icmp eq i32 %and, 0
  br i1 %tobool.not, label %if.end14, label %if.then5

if.then5:                                         ; preds = %while.body
  %cmp6 = icmp eq i32 %varCount.029, %index
  br i1 %cmp6, label %if.then7, label %if.end13

if.then7:                                         ; preds = %if.then5
  %variantList = getelementptr inbounds i8, ptr %this, i64 184
  %call8 = tail call noundef ptr @_ZNK6icu_757UVector9elementAtEi(ptr noundef nonnull align 8 dereferenceable(40) %variantList, i32 noundef %varListIndex.030)
  %cmp9.not = icmp eq ptr %call8, null
  br i1 %cmp9.not, label %while.end, label %if.then10

if.then10:                                        ; preds = %if.then7
  %call11 = tail call noundef nonnull align 8 dereferenceable(64) ptr @_ZN6icu_7513UnicodeStringaSERKS0_(ptr noundef nonnull align 8 dereferenceable(64) %result, ptr noundef nonnull align 8 dereferenceable(64) %call8)
  br label %return

if.end13:                                         ; preds = %if.then5
  %inc = add nsw i32 %varCount.029, 1
  br label %if.end14

if.end14:                                         ; preds = %if.end13, %while.body
  %varCount.1 = phi i32 [ %inc, %if.end13 ], [ %varCount.029, %while.body ]
  %shr = lshr i32 %varMask.028, 1
  %inc15 = add nuw nsw i32 %varListIndex.030, 1
  %cmp4.not = icmp ult i32 %varMask.028, 2
  br i1 %cmp4.not, label %while.end, label %while.body, !llvm.loop !16

while.end:                                        ; preds = %if.end14, %if.end, %if.then7
  %fUnion.i.i13 = getelementptr inbounds i8, ptr %result, i64 8
  %6 = load i16, ptr %fUnion.i.i13, align 8
  %conv2.i5.i14 = and i16 %6, 1
  %tobool.i15.not = icmp eq i16 %conv2.i5.i14, 0
  br i1 %tobool.i15.not, label %if.else.i16, label %if.then.i24

if.then.i24:                                      ; preds = %while.end
  tail call void @_ZN6icu_7513UnicodeString7unBogusEv(ptr noundef nonnull align 8 dereferenceable(64) %result)
  br label %return

if.else.i16:                                      ; preds = %while.end
  %cmp.i.i.i17 = icmp slt i16 %6, 0
  %7 = ashr i16 %6, 5
  %shr.i.i.i18 = sext i16 %7 to i32
  %fLength.i.i19 = getelementptr inbounds i8, ptr %result, i64 12
  %8 = load i32, ptr %fLength.i.i19, align 4
  %cond.i.i20 = select i1 %cmp.i.i.i17, i32 %8, i32 %shr.i.i.i18
  %cmp3.i21.not = icmp eq i32 %cond.i.i20, 0
  br i1 %cmp3.i21.not, label %return, label %if.then4.i23

if.then4.i23:                                     ; preds = %if.else.i16
  %9 = and i16 %6, 30
  store i16 %9, ptr %fUnion.i.i13, align 8
  br label %return

return:                                           ; preds = %if.then4.i23, %if.else.i16, %if.then.i24, %if.then4.i, %if.else.i, %if.then.i, %if.then10
  ret ptr %result
}